
RFReceiver.elf:     file format elf32-avr

Sections:
Idx Name          Size      VMA       LMA       File off  Algn
  0 .data         00000076  00800100  0000068c  00000720  2**0
                  CONTENTS, ALLOC, LOAD, DATA
  1 .text         0000068c  00000000  00000000  00000094  2**1
                  CONTENTS, ALLOC, LOAD, READONLY, CODE
  2 .bss          000001ab  00800176  00800176  00000796  2**0
                  ALLOC
  3 .comment      00000030  00000000  00000000  00000796  2**0
                  CONTENTS, READONLY
  4 .note.gnu.avr.deviceinfo 00000040  00000000  00000000  000007c8  2**2
                  CONTENTS, READONLY
  5 .debug_aranges 000000a0  00000000  00000000  00000808  2**0
                  CONTENTS, READONLY, DEBUGGING
  6 .debug_info   00000d05  00000000  00000000  000008a8  2**0
                  CONTENTS, READONLY, DEBUGGING
  7 .debug_abbrev 0000032a  00000000  00000000  000015ad  2**0
                  CONTENTS, READONLY, DEBUGGING
  8 .debug_line   000006eb  00000000  00000000  000018d7  2**0
                  CONTENTS, READONLY, DEBUGGING
  9 .debug_frame  000001e4  00000000  00000000  00001fc4  2**2
                  CONTENTS, READONLY, DEBUGGING
 10 .debug_str    000002ed  00000000  00000000  000021a8  2**0
                  CONTENTS, READONLY, DEBUGGING
 11 .debug_loc    00000754  00000000  00000000  00002495  2**0
                  CONTENTS, READONLY, DEBUGGING
 12 .debug_ranges 00000090  00000000  00000000  00002be9  2**0
                  CONTENTS, READONLY, DEBUGGING

Disassembly of section .text:

00000000 <__vectors>:
   0:	0c 94 3e 00 	jmp	0x7c	; 0x7c <__ctors_end>
   4:	0c 94 aa 01 	jmp	0x354	; 0x354 <__vector_1>
   8:	0c 94 5b 00 	jmp	0xb6	; 0xb6 <__bad_interrupt>
   c:	0c 94 5b 00 	jmp	0xb6	; 0xb6 <__bad_interrupt>
  10:	0c 94 5b 00 	jmp	0xb6	; 0xb6 <__bad_interrupt>
  14:	0c 94 5b 00 	jmp	0xb6	; 0xb6 <__bad_interrupt>
  18:	0c 94 5b 00 	jmp	0xb6	; 0xb6 <__bad_interrupt>
  1c:	0c 94 5b 00 	jmp	0xb6	; 0xb6 <__bad_interrupt>
  20:	0c 94 5b 00 	jmp	0xb6	; 0xb6 <__bad_interrupt>
  24:	0c 94 5b 00 	jmp	0xb6	; 0xb6 <__bad_interrupt>
  28:	0c 94 5b 00 	jmp	0xb6	; 0xb6 <__bad_interrupt>
  2c:	0c 94 5b 00 	jmp	0xb6	; 0xb6 <__bad_interrupt>
  30:	0c 94 5b 00 	jmp	0xb6	; 0xb6 <__bad_interrupt>
  34:	0c 94 5b 00 	jmp	0xb6	; 0xb6 <__bad_interrupt>
  38:	0c 94 5b 00 	jmp	0xb6	; 0xb6 <__bad_interrupt>
  3c:	0c 94 5b 00 	jmp	0xb6	; 0xb6 <__bad_interrupt>
  40:	0c 94 5b 00 	jmp	0xb6	; 0xb6 <__bad_interrupt>
  44:	0c 94 5b 00 	jmp	0xb6	; 0xb6 <__bad_interrupt>
  48:	0c 94 5b 00 	jmp	0xb6	; 0xb6 <__bad_interrupt>
  4c:	0c 94 5b 00 	jmp	0xb6	; 0xb6 <__bad_interrupt>
  50:	0c 94 5b 00 	jmp	0xb6	; 0xb6 <__bad_interrupt>
  54:	0c 94 5b 00 	jmp	0xb6	; 0xb6 <__bad_interrupt>
  58:	0c 94 5b 00 	jmp	0xb6	; 0xb6 <__bad_interrupt>
  5c:	0c 94 5b 00 	jmp	0xb6	; 0xb6 <__bad_interrupt>
  60:	0c 94 5b 00 	jmp	0xb6	; 0xb6 <__bad_interrupt>
  64:	0c 94 5b 00 	jmp	0xb6	; 0xb6 <__bad_interrupt>
  68:	0c 94 5b 00 	jmp	0xb6	; 0xb6 <__bad_interrupt>
  6c:	0c 94 5b 00 	jmp	0xb6	; 0xb6 <__bad_interrupt>
  70:	0c 94 5b 00 	jmp	0xb6	; 0xb6 <__bad_interrupt>
  74:	0c 94 5b 00 	jmp	0xb6	; 0xb6 <__bad_interrupt>
  78:	0c 94 5b 00 	jmp	0xb6	; 0xb6 <__bad_interrupt>

0000007c <__ctors_end>:
  7c:	11 24       	eor	r1, r1
  7e:	1f be       	out	0x3f, r1	; 63
  80:	cf ef       	ldi	r28, 0xFF	; 255
  82:	d0 e1       	ldi	r29, 0x10	; 16
  84:	de bf       	out	0x3e, r29	; 62
  86:	cd bf       	out	0x3d, r28	; 61

00000088 <__do_copy_data>:
  88:	11 e0       	ldi	r17, 0x01	; 1
  8a:	a0 e0       	ldi	r26, 0x00	; 0
  8c:	b1 e0       	ldi	r27, 0x01	; 1
  8e:	ec e8       	ldi	r30, 0x8C	; 140
  90:	f6 e0       	ldi	r31, 0x06	; 6
  92:	02 c0       	rjmp	.+4      	; 0x98 <__do_copy_data+0x10>
  94:	05 90       	lpm	r0, Z+
  96:	0d 92       	st	X+, r0
  98:	a6 37       	cpi	r26, 0x76	; 118
  9a:	b1 07       	cpc	r27, r17
  9c:	d9 f7       	brne	.-10     	; 0x94 <__do_copy_data+0xc>

0000009e <__do_clear_bss>:
  9e:	23 e0       	ldi	r18, 0x03	; 3
  a0:	a6 e7       	ldi	r26, 0x76	; 118
  a2:	b1 e0       	ldi	r27, 0x01	; 1
  a4:	01 c0       	rjmp	.+2      	; 0xa8 <.do_clear_bss_start>

000000a6 <.do_clear_bss_loop>:
  a6:	1d 92       	st	X+, r1

000000a8 <.do_clear_bss_start>:
  a8:	a1 32       	cpi	r26, 0x21	; 33
  aa:	b2 07       	cpc	r27, r18
  ac:	e1 f7       	brne	.-8      	; 0xa6 <.do_clear_bss_loop>
  ae:	0e 94 e4 02 	call	0x5c8	; 0x5c8 <main>
  b2:	0c 94 44 03 	jmp	0x688	; 0x688 <_exit>

000000b6 <__bad_interrupt>:
  b6:	0c 94 00 00 	jmp	0	; 0x0 <__vectors>

000000ba <lcd_write>:
}


void lcd_write(uint8_t byte)
{
	lcdPort &= ~(1 << lcdD7Bit);                        // assume that data is '0'
  ba:	10 98       	cbi	0x02, 0	; 2
	if (byte & 1 << 7) lcdPort |= (1 << lcdD7Bit);     // make data = '1' if necessary
  bc:	88 23       	and	r24, r24
  be:	0c f4       	brge	.+2      	; 0xc2 <lcd_write+0x8>
  c0:	10 9a       	sbi	0x02, 0	; 2

	lcdPort &= ~(1 << lcdD6Bit);                        // repeat for each data bit
  c2:	11 98       	cbi	0x02, 1	; 2
	if (byte & 1 << 6) lcdPort |= (1 << lcdD6Bit);
  c4:	86 fd       	sbrc	r24, 6
  c6:	11 9a       	sbi	0x02, 1	; 2

	lcdPort &= ~(1 << lcdD5Bit);
  c8:	12 98       	cbi	0x02, 2	; 2
	if (byte & 1 << 5) lcdPort |= (1 << lcdD5Bit);
  ca:	85 fd       	sbrc	r24, 5
  cc:	12 9a       	sbi	0x02, 2	; 2

	lcdPort &= ~(1 << lcdD4Bit);
  ce:	13 98       	cbi	0x02, 3	; 2
	if (byte & 1 << 4) lcdPort |= (1 << lcdD4Bit);
  d0:	84 fd       	sbrc	r24, 4
  d2:	13 9a       	sbi	0x02, 3	; 2

	// write the data
	
	lcdPort |= (1 << lcdEBit);                   // E high
  d4:	14 9a       	sbi	0x02, 4	; 2
	#else
		//round up by default
		__ticks_dc = (uint32_t)(ceil(fabs(__tmp)));
	#endif

	__builtin_avr_delay_cycles(__ticks_dc);
  d6:	82 e0       	ldi	r24, 0x02	; 2
  d8:	8a 95       	dec	r24
  da:	f1 f7       	brne	.-4      	; 0xd8 <lcd_write+0x1e>
  dc:	00 c0       	rjmp	.+0      	; 0xde <lcd_write+0x24>
	_delay_us(1);                               // data setup
	lcdPort &= ~(1 << lcdEBit);                // E low
  de:	14 98       	cbi	0x02, 4	; 2
  e0:	82 e0       	ldi	r24, 0x02	; 2
  e2:	8a 95       	dec	r24
  e4:	f1 f7       	brne	.-4      	; 0xe2 <lcd_write+0x28>
  e6:	00 c0       	rjmp	.+0      	; 0xe8 <lcd_write+0x2e>
  e8:	08 95       	ret

000000ea <lcd_char>:
}



void lcd_char(uint8_t data)
{
  ea:	cf 93       	push	r28
  ec:	c8 2f       	mov	r28, r24
	lcdPort |= (1 << lcdRSBit);                 // RS high
  ee:	15 9a       	sbi	0x02, 5	; 2
	lcdPort &= ~(1 << lcdEBit);                // E low
  f0:	14 98       	cbi	0x02, 4	; 2
	lcd_write(data);                          // write the upper four bits of data
  f2:	0e 94 5d 00 	call	0xba	; 0xba <lcd_write>
	lcd_write(data << 4);                    // write the lower 4 bits of data
  f6:	8c 2f       	mov	r24, r28
  f8:	82 95       	swap	r24
  fa:	80 7f       	andi	r24, 0xF0	; 240
  fc:	0e 94 5d 00 	call	0xba	; 0xba <lcd_write>
}
 100:	cf 91       	pop	r28
 102:	08 95       	ret

00000104 <lcd_string>:
	_delay_us(50);               // same delay as off
}


void lcd_string(uint8_t string[])
{
 104:	cf 93       	push	r28
 106:	df 93       	push	r29
 108:	ec 01       	movw	r28, r24
	int i = 0;                             //while the string is not empty
	while (string[i] != 0)
 10a:	88 81       	ld	r24, Y
 10c:	88 23       	and	r24, r24
 10e:	51 f0       	breq	.+20     	; 0x124 <lcd_string+0x20>
 110:	21 96       	adiw	r28, 0x01	; 1
	{
		lcd_char(string[i]);
 112:	0e 94 75 00 	call	0xea	; 0xea <lcd_char>
 116:	85 e8       	ldi	r24, 0x85	; 133
 118:	8a 95       	dec	r24
 11a:	f1 f7       	brne	.-4      	; 0x118 <lcd_string+0x14>
 11c:	00 00       	nop


void lcd_string(uint8_t string[])
{
	int i = 0;                             //while the string is not empty
	while (string[i] != 0)
 11e:	89 91       	ld	r24, Y+
 120:	81 11       	cpse	r24, r1
 122:	f7 cf       	rjmp	.-18     	; 0x112 <lcd_string+0xe>
	{
		lcd_char(string[i]);
		i++;
		_delay_us(50);                              //40 us delay min
	}
}
 124:	df 91       	pop	r29
 126:	cf 91       	pop	r28
 128:	08 95       	ret

0000012a <lcd_instruction>:
	lcd_write(data << 4);                    // write the lower 4 bits of data
}


void lcd_instruction(uint8_t instruction)
{
 12a:	cf 93       	push	r28
 12c:	c8 2f       	mov	r28, r24
		lcdPort &= ~(1 << lcdRSBit);                // RS low
 12e:	15 98       	cbi	0x02, 5	; 2
		lcdPort &= ~(1 << lcdEBit);                // E low
 130:	14 98       	cbi	0x02, 4	; 2
		lcd_write(instruction);                   // write the upper 4 bits of data
 132:	0e 94 5d 00 	call	0xba	; 0xba <lcd_write>
 136:	8a e1       	ldi	r24, 0x1A	; 26
 138:	8a 95       	dec	r24
 13a:	f1 f7       	brne	.-4      	; 0x138 <lcd_instruction+0xe>
 13c:	00 c0       	rjmp	.+0      	; 0x13e <lcd_instruction+0x14>
		_delay_us(10);
		lcd_write(instruction << 4);             // write the lower 4 bits of data
 13e:	8c 2f       	mov	r24, r28
 140:	82 95       	swap	r24
 142:	80 7f       	andi	r24, 0xF0	; 240
 144:	0e 94 5d 00 	call	0xba	; 0xba <lcd_write>
	#else
		//round up by default
		__ticks_dc = (uint32_t)(ceil(fabs(__tmp)));
	#endif

	__builtin_avr_delay_cycles(__ticks_dc);
 148:	8f e0       	ldi	r24, 0x0F	; 15
 14a:	97 e2       	ldi	r25, 0x27	; 39
 14c:	01 97       	sbiw	r24, 0x01	; 1
 14e:	f1 f7       	brne	.-4      	; 0x14c <lcd_instruction+0x22>
 150:	00 c0       	rjmp	.+0      	; 0x152 <lcd_instruction+0x28>
 152:	00 00       	nop
		_delay_ms(5);
}
 154:	cf 91       	pop	r28
 156:	08 95       	ret

00000158 <lcd_init>:
void lcd_init(void);


void lcd_init(void)
{
	lcdDdr |= (1 << lcdD7Bit) | (1 << lcdD6Bit) | (1 << lcdD5Bit) | (1 << lcdD4Bit) | (1 << lcdEBit) | (1 << lcdRSBit);
 158:	81 b1       	in	r24, 0x01	; 1
 15a:	8f 63       	ori	r24, 0x3F	; 63
 15c:	81 b9       	out	0x01, r24	; 1
 15e:	2f ef       	ldi	r18, 0xFF	; 255
 160:	80 e7       	ldi	r24, 0x70	; 112
 162:	92 e0       	ldi	r25, 0x02	; 2
 164:	21 50       	subi	r18, 0x01	; 1
 166:	80 40       	sbci	r24, 0x00	; 0
 168:	90 40       	sbci	r25, 0x00	; 0
 16a:	e1 f7       	brne	.-8      	; 0x164 <lcd_init+0xc>
 16c:	00 c0       	rjmp	.+0      	; 0x16e <lcd_init+0x16>
 16e:	00 00       	nop
	_delay_ms(100);

	lcdPort &= ~(1 << lcdRSBit);                 // RS low
 170:	15 98       	cbi	0x02, 5	; 2
	lcdPort &= ~(1 << lcdEBit);                 // E low
 172:	14 98       	cbi	0x02, 4	; 2

	// LCD resets
	lcd_write(reset);
 174:	80 e3       	ldi	r24, 0x30	; 48
 176:	0e 94 5d 00 	call	0xba	; 0xba <lcd_write>
 17a:	8f e7       	ldi	r24, 0x7F	; 127
 17c:	9e e3       	ldi	r25, 0x3E	; 62
 17e:	01 97       	sbiw	r24, 0x01	; 1
 180:	f1 f7       	brne	.-4      	; 0x17e <lcd_init+0x26>
 182:	00 c0       	rjmp	.+0      	; 0x184 <lcd_init+0x2c>
 184:	00 00       	nop
	_delay_ms(8);                           // 5 ms delay min

	lcd_write(reset);
 186:	80 e3       	ldi	r24, 0x30	; 48
 188:	0e 94 5d 00 	call	0xba	; 0xba <lcd_write>
	#else
		//round up by default
		__ticks_dc = (uint32_t)(ceil(fabs(__tmp)));
	#endif

	__builtin_avr_delay_cycles(__ticks_dc);
 18c:	8f e8       	ldi	r24, 0x8F	; 143
 18e:	91 e0       	ldi	r25, 0x01	; 1
 190:	01 97       	sbiw	r24, 0x01	; 1
 192:	f1 f7       	brne	.-4      	; 0x190 <lcd_init+0x38>
 194:	00 c0       	rjmp	.+0      	; 0x196 <lcd_init+0x3e>
 196:	00 00       	nop
	_delay_us(200);                       // 100 us delay min

	lcd_write(reset);
 198:	80 e3       	ldi	r24, 0x30	; 48
 19a:	0e 94 5d 00 	call	0xba	; 0xba <lcd_write>
 19e:	8f e8       	ldi	r24, 0x8F	; 143
 1a0:	91 e0       	ldi	r25, 0x01	; 1
 1a2:	01 97       	sbiw	r24, 0x01	; 1
 1a4:	f1 f7       	brne	.-4      	; 0x1a2 <lcd_init+0x4a>
 1a6:	00 c0       	rjmp	.+0      	; 0x1a8 <lcd_init+0x50>
 1a8:	00 00       	nop
	_delay_us(200);
	
	lcd_write(bit4Mode);               	//set to 4 bit mode
 1aa:	88 e2       	ldi	r24, 0x28	; 40
 1ac:	0e 94 5d 00 	call	0xba	; 0xba <lcd_write>
 1b0:	95 e8       	ldi	r25, 0x85	; 133
 1b2:	9a 95       	dec	r25
 1b4:	f1 f7       	brne	.-4      	; 0x1b2 <lcd_init+0x5a>
 1b6:	00 00       	nop
	_delay_us(50);                     // 40us delay min

	lcd_instruction(bit4Mode);   	 // set 4 bit mode
 1b8:	88 e2       	ldi	r24, 0x28	; 40
 1ba:	0e 94 95 00 	call	0x12a	; 0x12a <lcd_instruction>
 1be:	25 e8       	ldi	r18, 0x85	; 133
 1c0:	2a 95       	dec	r18
 1c2:	f1 f7       	brne	.-4      	; 0x1c0 <lcd_init+0x68>
 1c4:	00 00       	nop
	_delay_us(50);                  // 40 us delay min

	// display off
	lcd_instruction(off);        	// turn off display
 1c6:	88 e0       	ldi	r24, 0x08	; 8
 1c8:	0e 94 95 00 	call	0x12a	; 0x12a <lcd_instruction>
 1cc:	85 e8       	ldi	r24, 0x85	; 133
 1ce:	8a 95       	dec	r24
 1d0:	f1 f7       	brne	.-4      	; 0x1ce <lcd_init+0x76>
 1d2:	00 00       	nop
	_delay_us(50);

	// Clear display
	lcd_instruction(clear);              // clear display
 1d4:	81 e0       	ldi	r24, 0x01	; 1
 1d6:	0e 94 95 00 	call	0x12a	; 0x12a <lcd_instruction>
	#else
		//round up by default
		__ticks_dc = (uint32_t)(ceil(fabs(__tmp)));
	#endif

	__builtin_avr_delay_cycles(__ticks_dc);
 1da:	8f e6       	ldi	r24, 0x6F	; 111
 1dc:	97 e1       	ldi	r25, 0x17	; 23
 1de:	01 97       	sbiw	r24, 0x01	; 1
 1e0:	f1 f7       	brne	.-4      	; 0x1de <lcd_init+0x86>
 1e2:	00 c0       	rjmp	.+0      	; 0x1e4 <lcd_init+0x8c>
 1e4:	00 00       	nop
	_delay_ms(3);                       // 1.64 ms delay min

	// entry mode
	lcd_instruction(entryMode);          // this instruction shifts the cursor
 1e6:	86 e0       	ldi	r24, 0x06	; 6
 1e8:	0e 94 95 00 	call	0x12a	; 0x12a <lcd_instruction>
	#else
		//round up by default
		__ticks_dc = (uint32_t)(ceil(fabs(__tmp)));
	#endif

	__builtin_avr_delay_cycles(__ticks_dc);
 1ec:	9a e6       	ldi	r25, 0x6A	; 106
 1ee:	9a 95       	dec	r25
 1f0:	f1 f7       	brne	.-4      	; 0x1ee <lcd_init+0x96>
 1f2:	00 c0       	rjmp	.+0      	; 0x1f4 <lcd_init+0x9c>
	_delay_us(40);                      // 40 us delay min

	// Display on
	lcd_instruction(on);          // turn on the display
 1f4:	8c e0       	ldi	r24, 0x0C	; 12
 1f6:	0e 94 95 00 	call	0x12a	; 0x12a <lcd_instruction>
 1fa:	25 e8       	ldi	r18, 0x85	; 133
 1fc:	2a 95       	dec	r18
 1fe:	f1 f7       	brne	.-4      	; 0x1fc <lcd_init+0xa4>
 200:	00 00       	nop
 202:	08 95       	ret

00000204 <USART_init>:
/*********************************************************** USART Configuration *****************************************************************/

void USART_init(void)
{
	/*Set baud rate */
	UBRR0H = (BAUDRATE>>8);
 204:	10 92 c5 00 	sts	0x00C5, r1	; 0x8000c5 <__TEXT_REGION_LENGTH__+0x7e00c5>
	UBRR0L = BAUDRATE;
 208:	83 e3       	ldi	r24, 0x33	; 51
 20a:	80 93 c4 00 	sts	0x00C4, r24	; 0x8000c4 <__TEXT_REGION_LENGTH__+0x7e00c4>
	
	/* Enable receiver and transmitter */
	UCSR0B = (1<<RXEN0)|(1<<TXEN0);
 20e:	e1 ec       	ldi	r30, 0xC1	; 193
 210:	f0 e0       	ldi	r31, 0x00	; 0
 212:	88 e1       	ldi	r24, 0x18	; 24
 214:	80 83       	st	Z, r24

	/* Set frame format: 8data, 1stop bit, no parity */
	UCSR0C = (3<<UCSZ00);
 216:	86 e0       	ldi	r24, 0x06	; 6
 218:	80 93 c2 00 	sts	0x00C2, r24	; 0x8000c2 <__TEXT_REGION_LENGTH__+0x7e00c2>
	
	/* Enable interrupt */
	UCSR0B |= (1 << RXCIE0);
 21c:	80 81       	ld	r24, Z
 21e:	80 68       	ori	r24, 0x80	; 128
 220:	80 83       	st	Z, r24
 222:	08 95       	ret

00000224 <USART_send>:
}

void USART_send(unsigned char data)
{
	/* Wait for data to be received */
	while (!( UCSR0A & (1<<UDRE0)));
 224:	e0 ec       	ldi	r30, 0xC0	; 192
 226:	f0 e0       	ldi	r31, 0x00	; 0
 228:	90 81       	ld	r25, Z
 22a:	95 ff       	sbrs	r25, 5
 22c:	fd cf       	rjmp	.-6      	; 0x228 <USART_send+0x4>
	UDR0 = data;
 22e:	80 93 c6 00 	sts	0x00C6, r24	; 0x8000c6 <__TEXT_REGION_LENGTH__+0x7e00c6>
 232:	08 95       	ret

00000234 <dac_write>:
	PORTB |= 1<<PORTB4; 					//ss high
}

void dac_write(uint16_t val)
{
	PORTB &= ~(1<<PORTB4); 		//turn off ss
 234:	2c 98       	cbi	0x05, 4	; 5

	val = val << 2;
 236:	88 0f       	add	r24, r24
 238:	99 1f       	adc	r25, r25
 23a:	88 0f       	add	r24, r24
 23c:	99 1f       	adc	r25, r25
	val |= (0b1001 << 12);
 23e:	90 69       	ori	r25, 0x90	; 144

	SPDR = val >> 8; 		//upper bytes
 240:	9e bd       	out	0x2e, r25	; 46

	while(!(SPSR & 1<<SPIF)); //wait til upper bytes done
 242:	0d b4       	in	r0, 0x2d	; 45
 244:	07 fe       	sbrs	r0, 7
 246:	fd cf       	rjmp	.-6      	; 0x242 <dac_write+0xe>

	SPDR = (0xFF & val); 		//lower bytes
 248:	8e bd       	out	0x2e, r24	; 46

	while(!(SPSR & 1<<SPIF)); //wait til lower bytes done
 24a:	0d b4       	in	r0, 0x2d	; 45
 24c:	07 fe       	sbrs	r0, 7
 24e:	fd cf       	rjmp	.-6      	; 0x24a <dac_write+0x16>

	PORTB |= 1<<PORTB4; 	//turn on ss
 250:	2c 9a       	sbi	0x05, 4	; 5
 252:	08 95       	ret

00000254 <frequency>:
}

void frequency(uint32_t frequency)
{
 254:	cf 93       	push	r28
 256:	df 93       	push	r29
 258:	00 d0       	rcall	.+0      	; 0x25a <frequency+0x6>
 25a:	00 d0       	rcall	.+0      	; 0x25c <frequency+0x8>
 25c:	cd b7       	in	r28, 0x3d	; 61
 25e:	de b7       	in	r29, 0x3e	; 62
	
	if (frequency == 0) {
 260:	61 15       	cp	r22, r1
 262:	71 05       	cpc	r23, r1
 264:	81 05       	cpc	r24, r1
 266:	91 05       	cpc	r25, r1
 268:	81 f4       	brne	.+32     	; 0x28a <frequency+0x36>
		for(volatile uint16_t i = 0; i < 1; i++);	//800 Hz
 26a:	1c 82       	std	Y+4, r1	; 0x04
 26c:	1b 82       	std	Y+3, r1	; 0x03
 26e:	8b 81       	ldd	r24, Y+3	; 0x03
 270:	9c 81       	ldd	r25, Y+4	; 0x04
 272:	89 2b       	or	r24, r25
 274:	f1 f4       	brne	.+60     	; 0x2b2 <frequency+0x5e>
 276:	8b 81       	ldd	r24, Y+3	; 0x03
 278:	9c 81       	ldd	r25, Y+4	; 0x04
 27a:	01 96       	adiw	r24, 0x01	; 1
 27c:	9c 83       	std	Y+4, r25	; 0x04
 27e:	8b 83       	std	Y+3, r24	; 0x03
 280:	8b 81       	ldd	r24, Y+3	; 0x03
 282:	9c 81       	ldd	r25, Y+4	; 0x04
 284:	89 2b       	or	r24, r25
 286:	b9 f3       	breq	.-18     	; 0x276 <frequency+0x22>
 288:	14 c0       	rjmp	.+40     	; 0x2b2 <frequency+0x5e>
	}
	
	else if (frequency == 1) {
 28a:	61 30       	cpi	r22, 0x01	; 1
 28c:	71 05       	cpc	r23, r1
 28e:	81 05       	cpc	r24, r1
 290:	91 05       	cpc	r25, r1
 292:	79 f4       	brne	.+30     	; 0x2b2 <frequency+0x5e>
		for(volatile uint16_t i = 0; i < 2; i++);	//1 kHz
 294:	1a 82       	std	Y+2, r1	; 0x02
 296:	19 82       	std	Y+1, r1	; 0x01
 298:	89 81       	ldd	r24, Y+1	; 0x01
 29a:	9a 81       	ldd	r25, Y+2	; 0x02
 29c:	02 97       	sbiw	r24, 0x02	; 2
 29e:	48 f4       	brcc	.+18     	; 0x2b2 <frequency+0x5e>
 2a0:	89 81       	ldd	r24, Y+1	; 0x01
 2a2:	9a 81       	ldd	r25, Y+2	; 0x02
 2a4:	01 96       	adiw	r24, 0x01	; 1
 2a6:	9a 83       	std	Y+2, r25	; 0x02
 2a8:	89 83       	std	Y+1, r24	; 0x01
 2aa:	89 81       	ldd	r24, Y+1	; 0x01
 2ac:	9a 81       	ldd	r25, Y+2	; 0x02
 2ae:	02 97       	sbiw	r24, 0x02	; 2
 2b0:	b8 f3       	brcs	.-18     	; 0x2a0 <frequency+0x4c>
	}
		

}
 2b2:	0f 90       	pop	r0
 2b4:	0f 90       	pop	r0
 2b6:	0f 90       	pop	r0
 2b8:	0f 90       	pop	r0
 2ba:	df 91       	pop	r29
 2bc:	cf 91       	pop	r28
 2be:	08 95       	ret

000002c0 <output_waveform>:

void output_waveform(uint32_t value, uint16_t arr[])
{
 2c0:	cf 92       	push	r12
 2c2:	df 92       	push	r13
 2c4:	ef 92       	push	r14
 2c6:	ff 92       	push	r15
 2c8:	0f 93       	push	r16
 2ca:	1f 93       	push	r17
 2cc:	cf 93       	push	r28
 2ce:	df 93       	push	r29
 2d0:	6b 01       	movw	r12, r22
 2d2:	7c 01       	movw	r14, r24
 2d4:	ea 01       	movw	r28, r20
 2d6:	8a 01       	movw	r16, r20
 2d8:	0c 59       	subi	r16, 0x9C	; 156
 2da:	1f 4f       	sbci	r17, 0xFF	; 255
	for (int i = 0; i < 50; i++)		//iterating through wave lookup table
	{
		dac_write(arr[i]);
 2dc:	89 91       	ld	r24, Y+
 2de:	99 91       	ld	r25, Y+
 2e0:	0e 94 1a 01 	call	0x234	; 0x234 <dac_write>
		frequency(value);
 2e4:	c7 01       	movw	r24, r14
 2e6:	b6 01       	movw	r22, r12
 2e8:	0e 94 2a 01 	call	0x254	; 0x254 <frequency>

}

void output_waveform(uint32_t value, uint16_t arr[])
{
	for (int i = 0; i < 50; i++)		//iterating through wave lookup table
 2ec:	c0 17       	cp	r28, r16
 2ee:	d1 07       	cpc	r29, r17
 2f0:	a9 f7       	brne	.-22     	; 0x2dc <output_waveform+0x1c>
	{
		dac_write(arr[i]);
		frequency(value);
	}
}
 2f2:	df 91       	pop	r29
 2f4:	cf 91       	pop	r28
 2f6:	1f 91       	pop	r17
 2f8:	0f 91       	pop	r16
 2fa:	ff 90       	pop	r15
 2fc:	ef 90       	pop	r14
 2fe:	df 90       	pop	r13
 300:	cf 90       	pop	r12
 302:	08 95       	ret

00000304 <beep>:

void beep(void) {
 304:	cf 93       	push	r28
 306:	c6 e9       	ldi	r28, 0x96	; 150
	
	for(uint8_t i = 0; i < 150; i++) {
		output_waveform(freq, (uint16_t *)sine);
 308:	60 91 00 01 	lds	r22, 0x0100	; 0x800100 <__data_start>
 30c:	70 91 01 01 	lds	r23, 0x0101	; 0x800101 <__data_start+0x1>
 310:	80 91 02 01 	lds	r24, 0x0102	; 0x800102 <__data_start+0x2>
 314:	90 91 03 01 	lds	r25, 0x0103	; 0x800103 <__data_start+0x3>
 318:	44 e0       	ldi	r20, 0x04	; 4
 31a:	51 e0       	ldi	r21, 0x01	; 1
 31c:	0e 94 60 01 	call	0x2c0	; 0x2c0 <output_waveform>
 320:	c1 50       	subi	r28, 0x01	; 1
	}
}

void beep(void) {
	
	for(uint8_t i = 0; i < 150; i++) {
 322:	91 f7       	brne	.-28     	; 0x308 <beep+0x4>
		output_waveform(freq, (uint16_t *)sine);
	}
}
 324:	cf 91       	pop	r28
 326:	08 95       	ret

00000328 <frequency_init>:

/***************************************************************** 125kHz wave **********************************************************/
void frequency_init(void) {
	DDRD |= (1 << PORTD7);
 328:	57 9a       	sbi	0x0a, 7	; 10
	TCCR2A |= (1<<WGM20 | 1<<WGM21 | 1<<COM2A0);
 32a:	e0 eb       	ldi	r30, 0xB0	; 176
 32c:	f0 e0       	ldi	r31, 0x00	; 0
 32e:	80 81       	ld	r24, Z
 330:	83 64       	ori	r24, 0x43	; 67
 332:	80 83       	st	Z, r24
	TCCR2B |= (1<<WGM22 | 1<<CS20); //Fast PWM
 334:	e1 eb       	ldi	r30, 0xB1	; 177
 336:	f0 e0       	ldi	r31, 0x00	; 0
 338:	80 81       	ld	r24, Z
 33a:	89 60       	ori	r24, 0x09	; 9
 33c:	80 83       	st	Z, r24
	OCR2A = 31;		// 8000000/64 = 125k, but it's half with 50% duty cycle. 31 was value with least percent error at 126.6 kHz
 33e:	8f e1       	ldi	r24, 0x1F	; 31
 340:	80 93 b3 00 	sts	0x00B3, r24	; 0x8000b3 <__TEXT_REGION_LENGTH__+0x7e00b3>
 344:	08 95       	ret

00000346 <interr_init>:
char card2[] = {0x42, 0x44, 0x46, 0x46, 0x42, 0x37, 0x44, 0x44, 0x42, 0x44}; //BDFFB7DDBD
char card3[] = {0x37, 0x46, 0x46, 0x46, 0x35, 0x46, 0x42, 0x44, 0x37, 0x46}; //7FFF5FBD7F


void interr_init(void) {
	DDRD &= ~(1 << PIND2);		//Receiver input
 346:	52 98       	cbi	0x0a, 2	; 10
	PORTD |= 1 << PIND2;		// pull up resistor
 348:	5a 9a       	sbi	0x0b, 2	; 11
	EIMSK = 1 << INT0;			//enable interrupt 0
 34a:	81 e0       	ldi	r24, 0x01	; 1
 34c:	8d bb       	out	0x1d, r24	; 29
	EIFR = 1 << INTF0;			//clear flag
 34e:	8c bb       	out	0x1c, r24	; 28
	MCUCR = 1 << ISC00;			//trigger on any edge
 350:	85 bf       	out	0x35, r24	; 53
 352:	08 95       	ret

00000354 <__vector_1>:
	
}

ISR(INT0_vect) {
 354:	1f 92       	push	r1
 356:	0f 92       	push	r0
 358:	0f b6       	in	r0, 0x3f	; 63
 35a:	0f 92       	push	r0
 35c:	11 24       	eor	r1, r1
 35e:	2f 93       	push	r18
 360:	8f 93       	push	r24
 362:	9f 93       	push	r25
 364:	ef 93       	push	r30
 366:	ff 93       	push	r31
 368:	85 ec       	ldi	r24, 0xC5	; 197
 36a:	93 e0       	ldi	r25, 0x03	; 3
 36c:	01 97       	sbiw	r24, 0x01	; 1
 36e:	f1 f7       	brne	.-4      	; 0x36c <__vector_1+0x18>
 370:	00 c0       	rjmp	.+0      	; 0x372 <__vector_1+0x1e>
 372:	00 00       	nop
	
	_delay_us(483);
	
	//483
	
	RFID.data[z] = ((PIND & 0x04)>>2);
 374:	e0 91 1d 03 	lds	r30, 0x031D	; 0x80031d <z>
 378:	f0 91 1e 03 	lds	r31, 0x031E	; 0x80031e <z+0x1>
 37c:	89 b1       	in	r24, 0x09	; 9
 37e:	ea 58       	subi	r30, 0x8A	; 138
 380:	fe 4f       	sbci	r31, 0xFE	; 254
 382:	82 fb       	bst	r24, 2
 384:	88 27       	eor	r24, r24
 386:	80 f9       	bld	r24, 0
 388:	80 83       	st	Z, r24
	
	if (RFID.data[z] == 1) {
 38a:	e0 91 1d 03 	lds	r30, 0x031D	; 0x80031d <z>
 38e:	f0 91 1e 03 	lds	r31, 0x031E	; 0x80031e <z+0x1>
 392:	ea 58       	subi	r30, 0x8A	; 138
 394:	fe 4f       	sbci	r31, 0xFE	; 254
 396:	80 81       	ld	r24, Z
 398:	81 30       	cpi	r24, 0x01	; 1
 39a:	b1 f5       	brne	.+108    	; 0x408 <__FUSE_REGION_LENGTH__+0x8>
		
		count++;
 39c:	80 91 20 03 	lds	r24, 0x0320	; 0x800320 <count>
 3a0:	8f 5f       	subi	r24, 0xFF	; 255
 3a2:	80 93 20 03 	sts	0x0320, r24	; 0x800320 <count>

		if(count == 9 && RFID.ready == false) {		//wait until 9 consecutive 1s
 3a6:	80 91 20 03 	lds	r24, 0x0320	; 0x800320 <count>
 3aa:	89 30       	cpi	r24, 0x09	; 9
 3ac:	79 f5       	brne	.+94     	; 0x40c <__FUSE_REGION_LENGTH__+0xc>
 3ae:	80 91 0e 03 	lds	r24, 0x030E	; 0x80030e <__data_end+0x198>
 3b2:	81 11       	cpse	r24, r1
 3b4:	2b c0       	rjmp	.+86     	; 0x40c <__FUSE_REGION_LENGTH__+0xc>
			
			RFID.index[ones] = z+1;		//store the index of each 9 1s
 3b6:	e0 91 1a 03 	lds	r30, 0x031A	; 0x80031a <ones>
 3ba:	f0 91 1b 03 	lds	r31, 0x031B	; 0x80031b <ones+0x1>
 3be:	80 91 1d 03 	lds	r24, 0x031D	; 0x80031d <z>
 3c2:	90 91 1e 03 	lds	r25, 0x031E	; 0x80031e <z+0x1>
 3c6:	01 96       	adiw	r24, 0x01	; 1
 3c8:	ee 0f       	add	r30, r30
 3ca:	ff 1f       	adc	r31, r31
 3cc:	ea 5f       	subi	r30, 0xFA	; 250
 3ce:	fc 4f       	sbci	r31, 0xFC	; 252
 3d0:	91 83       	std	Z+1, r25	; 0x01
 3d2:	80 83       	st	Z, r24

			if (ones > 3){
 3d4:	80 91 1a 03 	lds	r24, 0x031A	; 0x80031a <ones>
 3d8:	90 91 1b 03 	lds	r25, 0x031B	; 0x80031b <ones+0x1>
 3dc:	04 97       	sbiw	r24, 0x04	; 4
 3de:	50 f0       	brcs	.+20     	; 0x3f4 <__vector_1+0xa0>
				RFID.ready = true;
 3e0:	81 e0       	ldi	r24, 0x01	; 1
 3e2:	80 93 0e 03 	sts	0x030E, r24	; 0x80030e <__data_end+0x198>
				ones = 0;
 3e6:	10 92 1b 03 	sts	0x031B, r1	; 0x80031b <ones+0x1>
 3ea:	10 92 1a 03 	sts	0x031A, r1	; 0x80031a <ones>
				count = 0;
 3ee:	10 92 20 03 	sts	0x0320, r1	; 0x800320 <count>
 3f2:	0c c0       	rjmp	.+24     	; 0x40c <__FUSE_REGION_LENGTH__+0xc>
			}
			
			else ones++;
 3f4:	80 91 1a 03 	lds	r24, 0x031A	; 0x80031a <ones>
 3f8:	90 91 1b 03 	lds	r25, 0x031B	; 0x80031b <ones+0x1>
 3fc:	01 96       	adiw	r24, 0x01	; 1
 3fe:	90 93 1b 03 	sts	0x031B, r25	; 0x80031b <ones+0x1>
 402:	80 93 1a 03 	sts	0x031A, r24	; 0x80031a <ones>
 406:	02 c0       	rjmp	.+4      	; 0x40c <__FUSE_REGION_LENGTH__+0xc>
		}
		
	}
	
	else count = 0;	
 408:	10 92 20 03 	sts	0x0320, r1	; 0x800320 <count>
	
	if (z < 398) z++;		
 40c:	80 91 1d 03 	lds	r24, 0x031D	; 0x80031d <z>
 410:	90 91 1e 03 	lds	r25, 0x031E	; 0x80031e <z+0x1>
 414:	8e 38       	cpi	r24, 0x8E	; 142
 416:	91 40       	sbci	r25, 0x01	; 1
 418:	50 f4       	brcc	.+20     	; 0x42e <__FUSE_REGION_LENGTH__+0x2e>
 41a:	80 91 1d 03 	lds	r24, 0x031D	; 0x80031d <z>
 41e:	90 91 1e 03 	lds	r25, 0x031E	; 0x80031e <z+0x1>
 422:	01 96       	adiw	r24, 0x01	; 1
 424:	90 93 1e 03 	sts	0x031E, r25	; 0x80031e <z+0x1>
 428:	80 93 1d 03 	sts	0x031D, r24	; 0x80031d <z>
 42c:	07 c0       	rjmp	.+14     	; 0x43c <__FUSE_REGION_LENGTH__+0x3c>
	else { z = 0; RFID.done = true;}
 42e:	10 92 1e 03 	sts	0x031E, r1	; 0x80031e <z+0x1>
 432:	10 92 1d 03 	sts	0x031D, r1	; 0x80031d <z>
 436:	81 e0       	ldi	r24, 0x01	; 1
 438:	80 93 0f 03 	sts	0x030F, r24	; 0x80030f <__data_end+0x199>
	
	
						
	EIFR = 1 << INTF0;		//clear flag
 43c:	81 e0       	ldi	r24, 0x01	; 1
 43e:	8c bb       	out	0x1c, r24	; 28
	
}
 440:	ff 91       	pop	r31
 442:	ef 91       	pop	r30
 444:	9f 91       	pop	r25
 446:	8f 91       	pop	r24
 448:	2f 91       	pop	r18
 44a:	0f 90       	pop	r0
 44c:	0f be       	out	0x3f, r0	; 63
 44e:	0f 90       	pop	r0
 450:	1f 90       	pop	r1
 452:	18 95       	reti

00000454 <manchester_done>:


bool manchester_done(void) {
 454:	9f 92       	push	r9
 456:	af 92       	push	r10
 458:	bf 92       	push	r11
 45a:	cf 92       	push	r12
 45c:	df 92       	push	r13
 45e:	ef 92       	push	r14
 460:	ff 92       	push	r15
 462:	0f 93       	push	r16
 464:	1f 93       	push	r17
 466:	cf 93       	push	r28
 468:	df 93       	push	r29
 46a:	cd b7       	in	r28, 0x3d	; 61
 46c:	de b7       	in	r29, 0x3e	; 62
 46e:	2f 97       	sbiw	r28, 0x0f	; 15
 470:	0f b6       	in	r0, 0x3f	; 63
 472:	f8 94       	cli
 474:	de bf       	out	0x3e, r29	; 62
 476:	0f be       	out	0x3f, r0	; 63
 478:	cd bf       	out	0x3d, r28	; 61
	
	if (RFID.done == true){	
 47a:	80 91 0f 03 	lds	r24, 0x030F	; 0x80030f <__data_end+0x199>
 47e:	88 23       	and	r24, r24
 480:	09 f4       	brne	.+2      	; 0x484 <manchester_done+0x30>
 482:	8a c0       	rjmp	.+276    	; 0x598 <manchester_done+0x144>
		cli();
 484:	f8 94       	cli
		
		unsigned int index;
		index = RFID.index[ones];
 486:	e0 91 1a 03 	lds	r30, 0x031A	; 0x80031a <ones>
 48a:	f0 91 1b 03 	lds	r31, 0x031B	; 0x80031b <ones+0x1>
 48e:	ee 0f       	add	r30, r30
 490:	ff 1f       	adc	r31, r31
 492:	ea 5f       	subi	r30, 0xFA	; 250
 494:	fc 4f       	sbci	r31, 0xFC	; 252
 496:	c0 80       	ld	r12, Z
 498:	d1 80       	ldd	r13, Z+1	; 0x01
		int8_t col_parity[4] = {0}; 
 49a:	1b 86       	std	Y+11, r1	; 0x0b
 49c:	1c 86       	std	Y+12, r1	; 0x0c
 49e:	1d 86       	std	Y+13, r1	; 0x0d
 4a0:	1e 86       	std	Y+14, r1	; 0x0e
		volatile int8_t row_parity[10] = {0}; 
 4a2:	fe 01       	movw	r30, r28
 4a4:	31 96       	adiw	r30, 0x01	; 1
 4a6:	9a e0       	ldi	r25, 0x0A	; 10
 4a8:	df 01       	movw	r26, r30
 4aa:	1d 92       	st	X+, r1
 4ac:	9a 95       	dec	r25
 4ae:	e9 f7       	brne	.-6      	; 0x4aa <manchester_done+0x56>
 4b0:	60 e1       	ldi	r22, 0x10	; 16
 4b2:	73 e0       	ldi	r23, 0x03	; 3
 4b4:	d6 01       	movw	r26, r12
 4b6:	a5 58       	subi	r26, 0x85	; 133
 4b8:	be 4f       	sbci	r27, 0xFE	; 254
 4ba:	0f 2e       	mov	r0, r31
 4bc:	fa e1       	ldi	r31, 0x1A	; 26
 4be:	ef 2e       	mov	r14, r31
 4c0:	f3 e0       	ldi	r31, 0x03	; 3
 4c2:	ff 2e       	mov	r15, r31
 4c4:	f0 2d       	mov	r31, r0
			 
		 for (int8_t i = 0; i < 10; i++) {					//10 parity bits = 50 total iterations 
			 
			volatile int8_t rfid_char = 0;
 4c6:	0f 2e       	mov	r0, r31
 4c8:	f3 e0       	ldi	r31, 0x03	; 3
 4ca:	af 2e       	mov	r10, r31
 4cc:	f0 2d       	mov	r31, r0
 4ce:	b1 2c       	mov	r11, r1
 4d0:	06 e6       	ldi	r16, 0x66	; 102
 4d2:	1e ef       	ldi	r17, 0xFE	; 254
 4d4:	06 57       	subi	r16, 0x76	; 118
 4d6:	11 40       	sbci	r17, 0x01	; 1
			 index++;								//increment the index to the parity bit (5x)
			 row_parity[i] = RFID.data[index] + 0;//save the row parity bit
			 
			 //row_P_check[i] = (((!(RFID.data[index-1]) != !(RFID.data[index-2]) != !(RFID.data[index-3])) != !(RFID.data[index-2])
			 
			if(row_parity[i] != (rfid_char & 1)) parity_error = true;
 4d8:	99 24       	eor	r9, r9
 4da:	93 94       	inc	r9
		int8_t col_parity[4] = {0}; 
		volatile int8_t row_parity[10] = {0}; 
			 
		 for (int8_t i = 0; i < 10; i++) {					//10 parity bits = 50 total iterations 
			 
			volatile int8_t rfid_char = 0;
 4dc:	1f 86       	std	Y+15, r1	; 0x0f
 4de:	fd 01       	movw	r30, r26
 4e0:	35 97       	sbiw	r30, 0x05	; 5
 4e2:	4a 2d       	mov	r20, r10
 4e4:	5b 2d       	mov	r21, r11
			
			 for (int8_t j = 3; j >= 0; j--) {		
				 int8_t decoded_bit = RFID.data[index];		//save each bit
 4e6:	21 91       	ld	r18, Z+
				 rfid_char += decoded_bit << j;				//shift 4 times to create 8 bit int
 4e8:	9f 85       	ldd	r25, Y+15	; 0x0f
 4ea:	02 2e       	mov	r0, r18
 4ec:	00 0c       	add	r0, r0
 4ee:	33 0b       	sbc	r19, r19
 4f0:	04 2e       	mov	r0, r20
 4f2:	02 c0       	rjmp	.+4      	; 0x4f8 <manchester_done+0xa4>
 4f4:	22 0f       	add	r18, r18
 4f6:	33 1f       	adc	r19, r19
 4f8:	0a 94       	dec	r0
 4fa:	e2 f7       	brpl	.-8      	; 0x4f4 <manchester_done+0xa0>
 4fc:	29 0f       	add	r18, r25
 4fe:	2f 87       	std	Y+15, r18	; 0x0f
 500:	41 50       	subi	r20, 0x01	; 1
 502:	51 09       	sbc	r21, r1
 504:	80 f7       	brcc	.-32     	; 0x4e6 <manchester_done+0x92>
 506:	a8 01       	movw	r20, r16
 508:	46 0f       	add	r20, r22
 50a:	57 1f       	adc	r21, r23
				 index++;									//increment the index 4 times
			 }
			 
			 RFID.buff[i] = rfid_char;				//save each character
 50c:	9f 85       	ldd	r25, Y+15	; 0x0f
 50e:	fb 01       	movw	r30, r22
 510:	91 93       	st	Z+, r25
 512:	bf 01       	movw	r22, r30
			 index++;								//increment the index to the parity bit (5x)
			 row_parity[i] = RFID.data[index] + 0;//save the row parity bit
 514:	9c 91       	ld	r25, X
 516:	e1 e0       	ldi	r30, 0x01	; 1
 518:	f0 e0       	ldi	r31, 0x00	; 0
 51a:	ec 0f       	add	r30, r28
 51c:	fd 1f       	adc	r31, r29
 51e:	e4 0f       	add	r30, r20
 520:	f5 1f       	adc	r31, r21
 522:	90 83       	st	Z, r25
			 
			 //row_P_check[i] = (((!(RFID.data[index-1]) != !(RFID.data[index-2]) != !(RFID.data[index-3])) != !(RFID.data[index-2])
			 
			if(row_parity[i] != (rfid_char & 1)) parity_error = true;
 524:	20 81       	ld	r18, Z
 526:	9f 85       	ldd	r25, Y+15	; 0x0f
 528:	91 70       	andi	r25, 0x01	; 1
 52a:	29 13       	cpse	r18, r25
 52c:	90 92 1f 03 	sts	0x031F, r9	; 0x80031f <parity_error>
 530:	15 96       	adiw	r26, 0x05	; 5
		unsigned int index;
		index = RFID.index[ones];
		int8_t col_parity[4] = {0}; 
		volatile int8_t row_parity[10] = {0}; 
			 
		 for (int8_t i = 0; i < 10; i++) {					//10 parity bits = 50 total iterations 
 532:	6e 15       	cp	r22, r14
 534:	7f 05       	cpc	r23, r15
 536:	91 f6       	brne	.-92     	; 0x4dc <manchester_done+0x88>
 538:	fe 01       	movw	r30, r28
 53a:	3f 96       	adiw	r30, 0x0f	; 15
 53c:	d6 01       	movw	r26, r12
 53e:	a8 55       	subi	r26, 0x58	; 88
 540:	be 4f       	sbci	r27, 0xFE	; 254
 542:	ae 01       	movw	r20, r28
 544:	45 5f       	subi	r20, 0xF5	; 245
 546:	5f 4f       	sbci	r21, 0xFF	; 255
			if(row_parity[i] != (rfid_char & 1)) parity_error = true;

		 }
		 
		 for (int8_t i = 3; i >= 0; i--) {			//final 4 parity bits
			 col_parity[i] += RFID.data[index];
 548:	9d 91       	ld	r25, X+
 54a:	22 91       	ld	r18, -Z
 54c:	92 0f       	add	r25, r18
 54e:	90 83       	st	Z, r25
			 
			if(row_parity[i] != (rfid_char & 1)) parity_error = true;

		 }
		 
		 for (int8_t i = 3; i >= 0; i--) {			//final 4 parity bits
 550:	e4 17       	cp	r30, r20
 552:	f5 07       	cpc	r31, r21
 554:	c9 f7       	brne	.-14     	; 0x548 <manchester_done+0xf4>
			 col_parity[i] += RFID.data[index];
			 index++;
		 }
		 
		  
		 int8_t stop_bit = RFID.data[index];
 556:	f6 01       	movw	r30, r12
 558:	ea 58       	subi	r30, 0x8A	; 138
 55a:	fe 4f       	sbci	r31, 0xFE	; 254
		 
		 if (stop_bit != 0 && col_parity[1] !=0){ 
 55c:	96 a9       	ldd	r25, Z+54	; 0x36
 55e:	99 23       	and	r25, r25
 560:	b9 f0       	breq	.+46     	; 0x590 <manchester_done+0x13c>
 562:	9c 85       	ldd	r25, Y+12	; 0x0c
 564:	99 23       	and	r25, r25
 566:	a1 f0       	breq	.+40     	; 0x590 <manchester_done+0x13c>
			index = RFID.index[ones++];
 568:	80 91 1a 03 	lds	r24, 0x031A	; 0x80031a <ones>
 56c:	90 91 1b 03 	lds	r25, 0x031B	; 0x80031b <ones+0x1>
 570:	9c 01       	movw	r18, r24
 572:	2f 5f       	subi	r18, 0xFF	; 255
 574:	3f 4f       	sbci	r19, 0xFF	; 255
 576:	30 93 1b 03 	sts	0x031B, r19	; 0x80031b <ones+0x1>
 57a:	20 93 1a 03 	sts	0x031A, r18	; 0x80031a <ones>
 57e:	88 0f       	add	r24, r24
 580:	99 1f       	adc	r25, r25
 582:	fc 01       	movw	r30, r24
 584:	ea 5f       	subi	r30, 0xFA	; 250
 586:	fc 4f       	sbci	r31, 0xFC	; 252
 588:	80 81       	ld	r24, Z
 58a:	91 81       	ldd	r25, Z+1	; 0x01
			 return false;
 58c:	80 e0       	ldi	r24, 0x00	; 0
 58e:	04 c0       	rjmp	.+8      	; 0x598 <manchester_done+0x144>
			 }
			 
			RFID.done = false;
 590:	10 92 0f 03 	sts	0x030F, r1	; 0x80030f <__data_end+0x199>
			RFID.ready = false;
 594:	10 92 0e 03 	sts	0x030E, r1	; 0x80030e <__data_end+0x198>
			index = 0;
			return true;		
	 }
	 
	 return false;
}
 598:	2f 96       	adiw	r28, 0x0f	; 15
 59a:	0f b6       	in	r0, 0x3f	; 63
 59c:	f8 94       	cli
 59e:	de bf       	out	0x3e, r29	; 62
 5a0:	0f be       	out	0x3f, r0	; 63
 5a2:	cd bf       	out	0x3d, r28	; 61
 5a4:	df 91       	pop	r29
 5a6:	cf 91       	pop	r28
 5a8:	1f 91       	pop	r17
 5aa:	0f 91       	pop	r16
 5ac:	ff 90       	pop	r15
 5ae:	ef 90       	pop	r14
 5b0:	df 90       	pop	r13
 5b2:	cf 90       	pop	r12
 5b4:	bf 90       	pop	r11
 5b6:	af 90       	pop	r10
 5b8:	9f 90       	pop	r9
 5ba:	08 95       	ret

000005bc <toChar>:

char toChar(int8_t i) {
	if ( 0 <= i && i <= 9){
 5bc:	8a 30       	cpi	r24, 0x0A	; 10
 5be:	10 f4       	brcc	.+4      	; 0x5c4 <toChar+0x8>
		return i + '0';
 5c0:	80 5d       	subi	r24, 0xD0	; 208
 5c2:	08 95       	ret
		} else {
		return (i - 10) + 'A';
 5c4:	89 5c       	subi	r24, 0xC9	; 201
	}
}
 5c6:	08 95       	ret

000005c8 <main>:

int main( void )
{
 
	lcd_init();
 5c8:	0e 94 ac 00 	call	0x158	; 0x158 <lcd_init>
	USART_init();
 5cc:	0e 94 02 01 	call	0x204	; 0x204 <USART_init>
	frequency_init();
 5d0:	0e 94 94 01 	call	0x328	; 0x328 <frequency_init>
	interr_init();
 5d4:	0e 94 a3 01 	call	0x346	; 0x346 <interr_init>
volatile uint32_t adcVal = 0;
volatile uint32_t freq = 1;

void inline SPI_init()
{
	DDRB |= (1<<PORTB5 | 1<<PORTB7 | 1<<PORTB4); 	// initializing ss, sck, and mosi pins
 5d8:	84 b1       	in	r24, 0x04	; 4
 5da:	80 6b       	ori	r24, 0xB0	; 176
 5dc:	84 b9       	out	0x04, r24	; 4
	SPSR |= 1<<SPI2X;
 5de:	8d b5       	in	r24, 0x2d	; 45
 5e0:	81 60       	ori	r24, 0x01	; 1
 5e2:	8d bd       	out	0x2d, r24	; 45
	SPCR |= (1<<SPE | 1<<MSTR); 			//enabling master mode, frequency 2 mhz
 5e4:	8c b5       	in	r24, 0x2c	; 44
 5e6:	80 65       	ori	r24, 0x50	; 80
 5e8:	8c bd       	out	0x2c, r24	; 44
	PORTB |= 1<<PORTB4; 					//ss high
 5ea:	2c 9a       	sbi	0x05, 4	; 5
	USART_init();
	frequency_init();
	interr_init();
	SPI_init();
	
	lcd_instruction(clear);
 5ec:	81 e0       	ldi	r24, 0x01	; 1
 5ee:	0e 94 95 00 	call	0x12a	; 0x12a <lcd_instruction>
	lcd_string((uint8_t *)"Ready to Scan");
 5f2:	88 e6       	ldi	r24, 0x68	; 104
 5f4:	91 e0       	ldi	r25, 0x01	; 1
 5f6:	0e 94 82 00 	call	0x104	; 0x104 <lcd_string>

	sei();
 5fa:	78 94       	sei
 5fc:	0f 2e       	mov	r0, r31
 5fe:	f0 e1       	ldi	r31, 0x10	; 16
 600:	cf 2e       	mov	r12, r31
 602:	f3 e0       	ldi	r31, 0x03	; 3
 604:	df 2e       	mov	r13, r31
 606:	f0 2d       	mov	r31, r0
 608:	0f 2e       	mov	r0, r31
 60a:	fa e1       	ldi	r31, 0x1A	; 26
 60c:	ef 2e       	mov	r14, r31
 60e:	f3 e0       	ldi	r31, 0x03	; 3
 610:	ff 2e       	mov	r15, r31
 612:	f0 2d       	mov	r31, r0
	
	while (1) {	
		
		if(!manchester_done()) continue;
 614:	0e 94 2a 02 	call	0x454	; 0x454 <manchester_done>
 618:	88 23       	and	r24, r24
 61a:	e1 f3       	breq	.-8      	; 0x614 <main+0x4c>

		lcd_instruction(clear);
 61c:	81 e0       	ldi	r24, 0x01	; 1
 61e:	0e 94 95 00 	call	0x12a	; 0x12a <lcd_instruction>
 622:	e6 01       	movw	r28, r12
 624:	86 01       	movw	r16, r12
		
		for (int i = 0; i < 10; i++) {
			lcd_char(toChar(RFID.buff[i]));
 626:	f8 01       	movw	r30, r16
 628:	81 91       	ld	r24, Z+
 62a:	8f 01       	movw	r16, r30
 62c:	0e 94 de 02 	call	0x5bc	; 0x5bc <toChar>
 630:	0e 94 75 00 	call	0xea	; 0xea <lcd_char>
 634:	f5 e8       	ldi	r31, 0x85	; 133
 636:	fa 95       	dec	r31
 638:	f1 f7       	brne	.-4      	; 0x636 <main+0x6e>
 63a:	00 00       	nop
		
		if(!manchester_done()) continue;

		lcd_instruction(clear);
		
		for (int i = 0; i < 10; i++) {
 63c:	0e 15       	cp	r16, r14
 63e:	1f 05       	cpc	r17, r15
 640:	91 f7       	brne	.-28     	; 0x626 <main+0x5e>
			lcd_char(toChar(RFID.buff[i]));
			_delay_us(50);
		}
		
		USART_send(0x0A);
 642:	8a e0       	ldi	r24, 0x0A	; 10
 644:	0e 94 12 01 	call	0x224	; 0x224 <USART_send>
		for (int i = 0; i < 10; i++) {
			USART_send(toChar(RFID.buff[i]));
 648:	89 91       	ld	r24, Y+
 64a:	0e 94 de 02 	call	0x5bc	; 0x5bc <toChar>
 64e:	0e 94 12 01 	call	0x224	; 0x224 <USART_send>
			lcd_char(toChar(RFID.buff[i]));
			_delay_us(50);
		}
		
		USART_send(0x0A);
		for (int i = 0; i < 10; i++) {
 652:	ce 15       	cp	r28, r14
 654:	df 05       	cpc	r29, r15
 656:	c1 f7       	brne	.-16     	; 0x648 <main+0x80>
			USART_send(toChar(RFID.buff[i]));
		}
		USART_send(0x0D);
 658:	8d e0       	ldi	r24, 0x0D	; 13
 65a:	0e 94 12 01 	call	0x224	; 0x224 <USART_send>
		beep();
 65e:	0e 94 82 01 	call	0x304	; 0x304 <beep>
	#else
		//round up by default
		__ticks_dc = (uint32_t)(ceil(fabs(__tmp)));
	#endif

	__builtin_avr_delay_cycles(__ticks_dc);
 662:	2f ef       	ldi	r18, 0xFF	; 255
 664:	89 e6       	ldi	r24, 0x69	; 105
 666:	98 e1       	ldi	r25, 0x18	; 24
 668:	21 50       	subi	r18, 0x01	; 1
 66a:	80 40       	sbci	r24, 0x00	; 0
 66c:	90 40       	sbci	r25, 0x00	; 0
 66e:	e1 f7       	brne	.-8      	; 0x668 <main+0xa0>
 670:	00 c0       	rjmp	.+0      	; 0x672 <main+0xaa>
 672:	00 00       	nop
		_delay_ms(1000);	
		ones = 0;
 674:	10 92 1b 03 	sts	0x031B, r1	; 0x80031b <ones+0x1>
 678:	10 92 1a 03 	sts	0x031A, r1	; 0x80031a <ones>
		z = 0;
 67c:	10 92 1e 03 	sts	0x031E, r1	; 0x80031e <z+0x1>
 680:	10 92 1d 03 	sts	0x031D, r1	; 0x80031d <z>
		sei();
 684:	78 94       	sei
 686:	c6 cf       	rjmp	.-116    	; 0x614 <main+0x4c>

00000688 <_exit>:
 688:	f8 94       	cli

0000068a <__stop_program>:
 68a:	ff cf       	rjmp	.-2      	; 0x68a <__stop_program>
